; Function Attrs: mustprogress nounwind uwtable
define hidden void @_ZN14PhaseIdealLoop47eliminate_useless_template_assertion_predicatesER16Unique_Node_List(ptr nocapture noundef nonnull readonly align 8 dereferenceable(237) %0, ptr nocapture noundef nonnull readonly align 8 dereferenceable(68) %1) local_unnamed_addr #0 align 2 {
  %3 = getelementptr inbounds i8, ptr %0, i64 16
  %4 = load ptr, ptr %3, align 8
  %5 = getelementptr inbounds i8, ptr %4, i64 464
  %6 = load i32, ptr %5, align 4
  %7 = icmp sgt i32 %6, 0
  br i1 %7, label %.lr.ph, label %._crit_edge

.lr.ph:                                           ; preds = %2
  %8 = getelementptr inbounds i8, ptr %1, i64 32
  %9 = getelementptr inbounds i8, ptr %1, i64 40
  %10 = getelementptr inbounds i8, ptr %0, i64 56
  %11 = zext nneg i32 %6 to i64
  br label %12

12:                                               ; preds = %.lr.ph, %37
  %indvars.iv = phi i64 [ %11, %.lr.ph ], [ %indvars.iv.next, %37 ]
  %13 = load ptr, ptr %3, align 8
  %indvars.iv.next = add nsw i64 %indvars.iv, -1
  %14 = getelementptr inbounds i8, ptr %13, i64 472
  %15 = load ptr, ptr %14, align 8
  %16 = getelementptr inbounds ptr, ptr %15, i64 %indvars.iv.next
  %17 = load ptr, ptr %16, align 8
  %18 = getelementptr inbounds i8, ptr %17, i64 40
  %19 = load i32, ptr %18, align 8
  %20 = lshr i32 %19, 5
  %21 = load i32, ptr %8, align 8
  %.not.i.i = icmp ult i32 %20, %21
  br i1 %.not.i.i, label %_ZN16Unique_Node_List6memberEP4Node.exit, label %_ZN16Unique_Node_List6memberEP4Node.exit.thread

_ZN16Unique_Node_List6memberEP4Node.exit:         ; preds = %12
  %22 = and i32 %19, 31
  %23 = shl nuw i32 1, %22
  %24 = load ptr, ptr %9, align 8
  %25 = zext nneg i32 %20 to i64
  %26 = getelementptr inbounds i32, ptr %24, i64 %25
  %27 = load i32, ptr %26, align 4
  %28 = and i32 %27, %23
  %.not = icmp eq i32 %28, 0
  br i1 %.not, label %_ZN16Unique_Node_List6memberEP4Node.exit.thread, label %37

_ZN16Unique_Node_List6memberEP4Node.exit.thread:  ; preds = %12, %_ZN16Unique_Node_List6memberEP4Node.exit
  %29 = load ptr, ptr %10, align 8
  %30 = getelementptr inbounds i8, ptr %17, i64 8
  %31 = load ptr, ptr %30, align 8
  %32 = getelementptr inbounds i8, ptr %31, i64 16
  %33 = load ptr, ptr %32, align 8
  tail call void @_ZN12PhaseIterGVN21add_users_to_worklistEP4Node(ptr noundef nonnull align 8 dereferenceable(2416) %29, ptr noundef nonnull %17) #15
  %34 = getelementptr inbounds i8, ptr %29, i64 32
  %35 = load ptr, ptr %34, align 8
  %36 = tail call noundef zeroext i1 @_ZN8NodeHash11hash_deleteEPK4Node(ptr noundef nonnull align 8 dereferenceable(40) %35, ptr noundef nonnull %17) #15
  tail call void @_ZN12PhaseIterGVN12subsume_nodeEP4NodeS1_(ptr noundef nonnull align 8 dereferenceable(2416) %29, ptr noundef nonnull %17, ptr noundef %33) #15
  br label %37

37:                                               ; preds = %_ZN16Unique_Node_List6memberEP4Node.exit, %_ZN16Unique_Node_List6memberEP4Node.exit.thread
  %38 = icmp ugt i64 %indvars.iv, 1
  br i1 %38, label %12, label %._crit_edge, !llvm.loop !77

._crit_edge:                                      ; preds = %37, %2
  ret void
}